; Function Attrs: mustprogress ssp uwtable
define internal fastcc void @"_ZNO8pybind116detail15argument_loaderIJRKN6open3d4core6TensorEiEE4callIS4_NS0_9void_typeERZNS3_L14pybind_getitemERNS_6class_IS4_JEEEE3$_1EENSt9enable_ifIXntsr3std7is_voidIT_EE5valueESG_E4typeEOT1_"(ptr dead_on_unwind noalias nonnull writable align 8 %0, i32 %.0.val, ptr %.24.val) unnamed_addr #5 align 2 personality ptr @__gxx_personality_v0 !type !1916 {
  %2 = alloca %"class.open3d::core::TensorKey", align 8
  %.not.i.i.i = icmp eq ptr %.24.val, null
  br i1 %.not.i.i.i, label %3, label %_ZN8pybind116detail7cast_opIRKN6open3d4core6TensorEEENS0_11type_casterINS0_14intrinsic_typeIT_E4typeEvE12cast_op_typeINSt20add_rvalue_referenceIS9_E4typeEEEOSC_.exit.i

3:                                                ; preds = %1
  %4 = tail call ptr @__cxa_allocate_exception(i64 16) #33, !noalias !1918
  invoke void @_ZN8pybind1120reference_cast_errorC2Ev(ptr noundef nonnull align 8 dereferenceable(16) %4)
          to label %5 unwind label %6, !noalias !1918

5:                                                ; preds = %3
  tail call void @__cxa_throw(ptr nonnull %4, ptr nonnull @_ZTIN8pybind1120reference_cast_errorE, ptr nonnull @_ZNSt13runtime_errorD2Ev) #35, !noalias !1918
  unreachable

common.resume.i:                                  ; preds = %33, %6
  %common.resume.op.i = phi { ptr, i32 } [ %7, %6 ], [ %34, %33 ]
  resume { ptr, i32 } %common.resume.op.i

6:                                                ; preds = %3
  %7 = landingpad { ptr, i32 }
          cleanup
  tail call void @__cxa_free_exception(ptr nonnull %4) #33, !noalias !1918
  br label %common.resume.i

_ZN8pybind116detail7cast_opIRKN6open3d4core6TensorEEENS0_11type_casterINS0_14intrinsic_typeIT_E4typeEvE12cast_op_typeINSt20add_rvalue_referenceIS9_E4typeEEEOSC_.exit.i: ; preds = %1
  call void @llvm.lifetime.start.p0(i64 16, ptr nonnull %2) #33, !noalias !1921
  %8 = sext i32 %.0.val to i64
  call void @_ZN6open3d4core9TensorKey5IndexEl(ptr dead_on_unwind nonnull writable sret(%"class.open3d::core::TensorKey") align 8 %2, i64 noundef %8), !noalias !1921
  invoke void @_ZNK6open3d4core6Tensor7GetItemERKNS0_9TensorKeyE(ptr dead_on_unwind nonnull writable sret(%"class.open3d::core::Tensor") align 8 %0, ptr noundef nonnull align 8 dereferenceable(160) %.24.val, ptr noundef nonnull align 8 dereferenceable(16) %2)
          to label %9 unwind label %33

9:                                                ; preds = %_ZN8pybind116detail7cast_opIRKN6open3d4core6TensorEEENS0_11type_casterINS0_14intrinsic_typeIT_E4typeEvE12cast_op_typeINSt20add_rvalue_referenceIS9_E4typeEEEOSC_.exit.i
  %10 = getelementptr inbounds nuw i8, ptr %2, i64 8
  %11 = load ptr, ptr %10, align 8, !tbaa !294, !noalias !1921
  %.not.i.i.i.i.i = icmp eq ptr %11, null
  br i1 %.not.i.i.i.i.i, label %"_ZNO8pybind116detail15argument_loaderIJRKN6open3d4core6TensorEiEE9call_implIS4_RZNS3_L14pybind_getitemERNS_6class_IS4_JEEEE3$_1JLm0ELm1EENS0_9void_typeEEET_OT0_St16integer_sequenceImJXspT1_EEEOT2_.exit", label %12

12:                                               ; preds = %9
  %13 = getelementptr inbounds nuw i8, ptr %11, i64 8
  %14 = load atomic i64, ptr %13 acquire, align 8
  %15 = icmp eq i64 %14, 4294967297
  %16 = trunc i64 %14 to i32
  br i1 %15, label %17, label %25

17:                                               ; preds = %12
  store i32 0, ptr %13, align 8, !tbaa !295
  %18 = getelementptr inbounds nuw i8, ptr %11, i64 12
  store i32 0, ptr %18, align 4, !tbaa !297
  %19 = load ptr, ptr %11, align 8, !tbaa !292
  %20 = getelementptr inbounds nuw i8, ptr %19, i64 16
  %21 = load ptr, ptr %20, align 8
  call void %21(ptr noundef nonnull align 8 dereferenceable(16) %11) #33
  %22 = load ptr, ptr %11, align 8, !tbaa !292
  %23 = getelementptr inbounds nuw i8, ptr %22, i64 24
  %24 = load ptr, ptr %23, align 8
  call void %24(ptr noundef nonnull align 8 dereferenceable(16) %11) #33
  br label %"_ZNO8pybind116detail15argument_loaderIJRKN6open3d4core6TensorEiEE9call_implIS4_RZNS3_L14pybind_getitemERNS_6class_IS4_JEEEE3$_1JLm0ELm1EENS0_9void_typeEEET_OT0_St16integer_sequenceImJXspT1_EEEOT2_.exit"

25:                                               ; preds = %12
  %26 = load i8, ptr @__libc_single_threaded, align 1, !tbaa !136, !noalias !1921
  %.not.i.i.i.i.i.i = icmp eq i8 %26, 0
  br i1 %.not.i.i.i.i.i.i, label %29, label %27

27:                                               ; preds = %25
  %28 = add nsw i32 %16, -1
  store i32 %28, ptr %13, align 4, !tbaa !298
  br label %_ZN9__gnu_cxx27__exchange_and_add_dispatchEPii.exit.i.i.i.i.i.i

29:                                               ; preds = %25
  %30 = atomicrmw volatile add ptr %13, i32 -1 acq_rel, align 4
  br label %_ZN9__gnu_cxx27__exchange_and_add_dispatchEPii.exit.i.i.i.i.i.i

_ZN9__gnu_cxx27__exchange_and_add_dispatchEPii.exit.i.i.i.i.i.i: ; preds = %29, %27
  %.0.i.i.i.i.i.i.i = phi i32 [ %16, %27 ], [ %30, %29 ]
  %31 = icmp eq i32 %.0.i.i.i.i.i.i.i, 1
  br i1 %31, label %32, label %"_ZNO8pybind116detail15argument_loaderIJRKN6open3d4core6TensorEiEE9call_implIS4_RZNS3_L14pybind_getitemERNS_6class_IS4_JEEEE3$_1JLm0ELm1EENS0_9void_typeEEET_OT0_St16integer_sequenceImJXspT1_EEEOT2_.exit", !prof !299

32:                                               ; preds = %_ZN9__gnu_cxx27__exchange_and_add_dispatchEPii.exit.i.i.i.i.i.i
  call void @_ZNSt16_Sp_counted_baseILN9__gnu_cxx12_Lock_policyE2EE24_M_release_last_use_coldEv(ptr noundef nonnull align 8 dereferenceable(16) %11) #33
  br label %"_ZNO8pybind116detail15argument_loaderIJRKN6open3d4core6TensorEiEE9call_implIS4_RZNS3_L14pybind_getitemERNS_6class_IS4_JEEEE3$_1JLm0ELm1EENS0_9void_typeEEET_OT0_St16integer_sequenceImJXspT1_EEEOT2_.exit"

33:                                               ; preds = %_ZN8pybind116detail7cast_opIRKN6open3d4core6TensorEEENS0_11type_casterINS0_14intrinsic_typeIT_E4typeEvE12cast_op_typeINSt20add_rvalue_referenceIS9_E4typeEEEOSC_.exit.i
  %34 = landingpad { ptr, i32 }
          cleanup
  call void @_ZN6open3d4core9TensorKeyD2Ev(ptr noundef nonnull align 8 dereferenceable(16) %2) #33
  call void @llvm.lifetime.end.p0(i64 16, ptr nonnull %2) #33, !noalias !1921
  br label %common.resume.i

"_ZNO8pybind116detail15argument_loaderIJRKN6open3d4core6TensorEiEE9call_implIS4_RZNS3_L14pybind_getitemERNS_6class_IS4_JEEEE3$_1JLm0ELm1EENS0_9void_typeEEET_OT0_St16integer_sequenceImJXspT1_EEEOT2_.exit": ; preds = %9, %17, %_ZN9__gnu_cxx27__exchange_and_add_dispatchEPii.exit.i.i.i.i.i.i, %32
  call void @llvm.lifetime.end.p0(i64 16, ptr nonnull %2) #33, !noalias !1921
  ret void
}